; Function Attrs: mustprogress uwtable
define void @_ZN3zmq14session_base_t14process_attachEPNS_8i_engineE(ptr noundef nonnull align 8 dereferenceable(1624) %0, ptr noundef %1) unnamed_addr #0 align 2 {
  %.not = icmp eq ptr %1, null
  br i1 %.not, label %3, label %8, !prof !104

3:                                                ; preds = %2
  %4 = load ptr, ptr @stderr, align 8, !tbaa !52
  %5 = tail call i32 (ptr, ptr, ...) @fprintf(ptr noundef %4, ptr noundef nonnull @.str.3, ptr noundef nonnull @.str.16, ptr noundef nonnull @.str.1, i32 noundef 383) #27
  %6 = load ptr, ptr @stderr, align 8, !tbaa !52
  %7 = tail call i32 @fflush(ptr noundef %6)
  tail call void @_ZN3zmq9zmq_abortEPKc(ptr noundef nonnull @.str.16)
  br label %8

8:                                                ; preds = %3, %2
  %9 = getelementptr inbounds nuw i8, ptr %0, i64 1552
  %10 = load ptr, ptr %9, align 8, !tbaa !91
  %.not4 = icmp eq ptr %10, null
  br i1 %.not4, label %16, label %11, !prof !102

11:                                               ; preds = %8
  %12 = load ptr, ptr @stderr, align 8, !tbaa !52
  %13 = tail call i32 (ptr, ptr, ...) @fprintf(ptr noundef %12, ptr noundef nonnull @.str.3, ptr noundef nonnull @.str.17, ptr noundef nonnull @.str.1, i32 noundef 384) #27
  %14 = load ptr, ptr @stderr, align 8, !tbaa !52
  %15 = tail call i32 @fflush(ptr noundef %14)
  tail call void @_ZN3zmq9zmq_abortEPKc(ptr noundef nonnull @.str.17)
  br label %16

16:                                               ; preds = %8, %11
  store ptr %1, ptr %9, align 8, !tbaa !91
  %17 = load ptr, ptr %1, align 8, !tbaa !54
  %18 = getelementptr inbounds nuw i8, ptr %17, i64 16
  %19 = load ptr, ptr %18, align 8
  %20 = tail call noundef zeroext i1 %19(ptr noundef nonnull align 8 dereferenceable(8) %1)
  br i1 %20, label %22, label %21

21:                                               ; preds = %16
  tail call void @_ZN3zmq14session_base_t12engine_readyEv(ptr noundef nonnull align 8 dereferenceable(1624) %0)
  br label %22

22:                                               ; preds = %21, %16
  %23 = load ptr, ptr %9, align 8, !tbaa !91
  %24 = getelementptr inbounds nuw i8, ptr %0, i64 1568
  %25 = load ptr, ptr %24, align 8, !tbaa !93
  %26 = load ptr, ptr %23, align 8, !tbaa !54
  %27 = getelementptr inbounds nuw i8, ptr %26, i64 24
  %28 = load ptr, ptr %27, align 8
  tail call void %28(ptr noundef nonnull align 8 dereferenceable(8) %23, ptr noundef %25, ptr noundef nonnull %0)
  ret void
}